target datalayout = "e-m:e-p270:32:32-p271:32:32-p272:64:64-i64:64-i128:128-f80:128-n8:16:32:64-S128"
target triple = "x86_64-pc-linux-gnu"

%struct.DhKey = type { %struct.sp_int, %struct.sp_int, %struct.sp_int, ptr, i32 }
%struct.sp_int = type { i16, i16, [129 x i64] }

; Function Attrs: nounwind uwtable
define i32 @wc_DhCheckPrivKey_ex(ptr noundef %0, ptr noundef %1, i32 noundef %2, ptr noundef %3, i32 noundef %4) #0 {
  %6 = alloca i32, align 4
  %7 = alloca ptr, align 8
  %8 = alloca ptr, align 8
  %9 = alloca i32, align 4
  %10 = alloca ptr, align 8
  %11 = alloca i32, align 4
  %12 = alloca i32, align 4
  %13 = alloca [1 x %struct.sp_int], align 16
  %14 = alloca [1 x %struct.sp_int], align 16
  %15 = alloca i32, align 4
  store ptr %0, ptr %7, align 8, !tbaa !3
  store ptr %1, ptr %8, align 8, !tbaa !16
  store i32 %2, ptr %9, align 4, !tbaa !9
  store ptr %3, ptr %10, align 8, !tbaa !16
  store i32 %4, ptr %11, align 4, !tbaa !9
  call void @llvm.lifetime.start.p0(i64 4, ptr %12) #9
  store i32 0, ptr %12, align 4, !tbaa !9
  call void @llvm.lifetime.start.p0(i64 1040, ptr %13) #9
  call void @llvm.lifetime.start.p0(i64 1040, ptr %14) #9
  %16 = load ptr, ptr %7, align 8, !tbaa !3
  %17 = icmp eq ptr %16, null
  br i1 %17, label %21, label %18

18:                                               ; preds = %5
  %19 = load ptr, ptr %8, align 8, !tbaa !16
  %20 = icmp eq ptr %19, null
  br i1 %20, label %21, label %22

21:                                               ; preds = %18, %5
  store i32 -173, ptr %6, align 4
  store i32 1, ptr %15, align 4
  br label %121

22:                                               ; preds = %18
  %23 = getelementptr inbounds [1 x %struct.sp_int], ptr %13, i64 0, i64 0
  %24 = getelementptr inbounds [1 x %struct.sp_int], ptr %14, i64 0, i64 0
  %25 = call i32 @sp_init_multi(ptr noundef %23, ptr noundef %24, ptr noundef null, ptr noundef null, ptr noundef null, ptr noundef null)
  %26 = icmp ne i32 %25, 0
  br i1 %26, label %27, label %28

27:                                               ; preds = %22
  store i32 -110, ptr %6, align 4
  store i32 1, ptr %15, align 4
  br label %121

28:                                               ; preds = %22
  %29 = getelementptr inbounds [1 x %struct.sp_int], ptr %13, i64 0, i64 0
  %30 = load ptr, ptr %8, align 8, !tbaa !16
  %31 = load i32, ptr %9, align 4, !tbaa !9
  %32 = call i32 @sp_read_unsigned_bin(ptr noundef %29, ptr noundef %30, i32 noundef %31)
  %33 = icmp ne i32 %32, 0
  br i1 %33, label %34, label %35

34:                                               ; preds = %28
  store i32 -111, ptr %12, align 4, !tbaa !9
  br label %35

35:                                               ; preds = %34, %28
  %36 = load i32, ptr %12, align 4, !tbaa !9
  %37 = icmp eq i32 %36, 0
  br i1 %37, label %38, label %68

38:                                               ; preds = %35
  %39 = load ptr, ptr %10, align 8, !tbaa !16
  %40 = icmp ne ptr %39, null
  br i1 %40, label %41, label %49

41:                                               ; preds = %38
  %42 = getelementptr inbounds [1 x %struct.sp_int], ptr %14, i64 0, i64 0
  %43 = load ptr, ptr %10, align 8, !tbaa !16
  %44 = load i32, ptr %11, align 4, !tbaa !9
  %45 = call i32 @sp_read_unsigned_bin(ptr noundef %42, ptr noundef %43, i32 noundef %44)
  %46 = icmp ne i32 %45, 0
  br i1 %46, label %47, label %48

47:                                               ; preds = %41
  store i32 -111, ptr %12, align 4, !tbaa !9
  br label %48

48:                                               ; preds = %47, %41
  br label %67

49:                                               ; preds = %38
  %50 = load ptr, ptr %7, align 8, !tbaa !3
  %51 = getelementptr inbounds nuw %struct.DhKey, ptr %50, i32 0, i32 2
  %52 = getelementptr inbounds nuw %struct.sp_int, ptr %51, i32 0, i32 0
  %53 = load i16, ptr %52, align 8, !tbaa !18
  %54 = zext i16 %53 to i32
  %55 = icmp eq i32 %54, 0
  %56 = zext i1 %55 to i32
  %57 = icmp eq i32 %56, 0
  br i1 %57, label %58, label %66

58:                                               ; preds = %49
  %59 = load ptr, ptr %7, align 8, !tbaa !3
  %60 = getelementptr inbounds nuw %struct.DhKey, ptr %59, i32 0, i32 2
  %61 = getelementptr inbounds [1 x %struct.sp_int], ptr %14, i64 0, i64 0
  %62 = call i32 @sp_copy(ptr noundef %60, ptr noundef %61)
  %63 = icmp ne i32 %62, 0
  br i1 %63, label %64, label %65

64:                                               ; preds = %58
  store i32 -110, ptr %12, align 4, !tbaa !9
  br label %65

65:                                               ; preds = %64, %58
  br label %66

66:                                               ; preds = %65, %49
  br label %67

67:                                               ; preds = %66, %48
  br label %68

68:                                               ; preds = %67, %35
  %69 = load i32, ptr %12, align 4, !tbaa !9
  %70 = icmp eq i32 %69, 0
  br i1 %70, label %71, label %77

71:                                               ; preds = %68
  %72 = getelementptr inbounds [1 x %struct.sp_int], ptr %13, i64 0, i64 0
  %73 = call i32 @sp_cmp_d(ptr noundef %72, i64 noundef 0)
  %74 = icmp eq i32 %73, 0
  br i1 %74, label %75, label %76

75:                                               ; preds = %71
  store i32 -120, ptr %12, align 4, !tbaa !9
  br label %76

76:                                               ; preds = %75, %71
  br label %77

77:                                               ; preds = %76, %68
  %78 = load i32, ptr %12, align 4, !tbaa !9
  %79 = icmp eq i32 %78, 0
  br i1 %79, label %80, label %117

80:                                               ; preds = %77
  %81 = getelementptr inbounds [1 x %struct.sp_int], ptr %14, i64 0, i64 0
  %82 = getelementptr inbounds nuw %struct.sp_int, ptr %81, i32 0, i32 0
  %83 = load i16, ptr %82, align 16, !tbaa !23
  %84 = zext i16 %83 to i32
  %85 = icmp eq i32 %84, 0
  %86 = zext i1 %85 to i32
  %87 = icmp eq i32 %86, 0
  br i1 %87, label %88, label %116

88:                                               ; preds = %80
  %89 = load ptr, ptr %7, align 8, !tbaa !3
  %90 = getelementptr inbounds nuw %struct.DhKey, ptr %89, i32 0, i32 2
  %91 = getelementptr inbounds [1 x %struct.sp_int], ptr %14, i64 0, i64 0
  %92 = call i32 @sp_copy(ptr noundef %90, ptr noundef %91)
  %93 = icmp ne i32 %92, 0
  br i1 %93, label %94, label %95

94:                                               ; preds = %88
  store i32 -110, ptr %12, align 4, !tbaa !9
  br label %95

95:                                               ; preds = %94, %88
  %96 = load i32, ptr %12, align 4, !tbaa !9
  %97 = icmp eq i32 %96, 0
  br i1 %97, label %98, label %105

98:                                               ; preds = %95
  %99 = getelementptr inbounds [1 x %struct.sp_int], ptr %14, i64 0, i64 0
  %100 = getelementptr inbounds [1 x %struct.sp_int], ptr %14, i64 0, i64 0
  %101 = call i32 @sp_sub_d(ptr noundef %99, i64 noundef 1, ptr noundef %100)
  %102 = icmp ne i32 %101, 0
  br i1 %102, label %103, label %104

103:                                              ; preds = %98
  store i32 -114, ptr %12, align 4, !tbaa !9
  br label %104

104:                                              ; preds = %103, %98
  br label %105

105:                                              ; preds = %104, %95
  %106 = load i32, ptr %12, align 4, !tbaa !9
  %107 = icmp eq i32 %106, 0
  br i1 %107, label %108, label %115

108:                                              ; preds = %105
  %109 = getelementptr inbounds [1 x %struct.sp_int], ptr %13, i64 0, i64 0
  %110 = getelementptr inbounds [1 x %struct.sp_int], ptr %14, i64 0, i64 0
  %111 = call i32 @sp_cmp(ptr noundef %109, ptr noundef %110)
  %112 = icmp eq i32 %111, 1
  br i1 %112, label %113, label %114

113:                                              ; preds = %108
  store i32 -263, ptr %12, align 4, !tbaa !9
  br label %114

114:                                              ; preds = %113, %108
  br label %115

115:                                              ; preds = %114, %105
  br label %116

116:                                              ; preds = %115, %80
  br label %117

117:                                              ; preds = %116, %77
  %118 = getelementptr inbounds [1 x %struct.sp_int], ptr %13, i64 0, i64 0
  call void @sp_forcezero(ptr noundef %118)
  %119 = getelementptr inbounds [1 x %struct.sp_int], ptr %14, i64 0, i64 0
  call void @sp_clear(ptr noundef %119)
  %120 = load i32, ptr %12, align 4, !tbaa !9
  store i32 %120, ptr %6, align 4
  store i32 1, ptr %15, align 4
  br label %121

121:                                              ; preds = %117, %27, %21
  call void @llvm.lifetime.end.p0(i64 1040, ptr %14) #9
  call void @llvm.lifetime.end.p0(i64 1040, ptr %13) #9
  call void @llvm.lifetime.end.p0(i64 4, ptr %12) #9
  %122 = load i32, ptr %6, align 4
  ret i32 %122
}