; Function Attrs: nounwind uwtable
define range(i32 -263, 1) i32 @wc_DhCheckPrivKey_ex(ptr noundef %0, ptr noundef %1, i32 noundef %2, ptr noundef %3, i32 noundef %4) local_unnamed_addr #1 {
  %6 = alloca [1 x %struct.sp_int], align 16
  %7 = alloca [1 x %struct.sp_int], align 16
  call void @llvm.lifetime.start.p0(i64 1040, ptr nonnull %6) #14
  call void @llvm.lifetime.start.p0(i64 1040, ptr nonnull %7) #14
  %8 = icmp eq ptr %0, null
  %9 = icmp eq ptr %1, null
  %or.cond = or i1 %8, %9
  br i1 %or.cond, label %33, label %10

10:                                               ; preds = %5
  %11 = call i32 @sp_init_multi(ptr noundef nonnull %6, ptr noundef nonnull %7, ptr noundef null, ptr noundef null, ptr noundef null, ptr noundef null) #14
  %.not = icmp eq i32 %11, 0
  br i1 %.not, label %12, label %33

12:                                               ; preds = %10
  %13 = call i32 @sp_read_unsigned_bin(ptr noundef nonnull %6, ptr noundef nonnull %1, i32 noundef %2) #14
  %.not21 = icmp eq i32 %13, 0
  br i1 %.not21, label %14, label %.thread42

14:                                               ; preds = %12
  %.not22 = icmp eq ptr %3, null
  br i1 %.not22, label %17, label %15

15:                                               ; preds = %14
  %16 = call i32 @sp_read_unsigned_bin(ptr noundef nonnull %7, ptr noundef nonnull %3, i32 noundef %4) #14
  %.not25 = icmp eq i32 %16, 0
  br i1 %.not25, label %.thread, label %.thread42

17:                                               ; preds = %14
  %18 = getelementptr inbounds nuw i8, ptr %0, i64 2080
  %19 = load i16, ptr %18, align 8, !tbaa !12
  %.not23 = icmp eq i16 %19, 0
  br i1 %.not23, label %.thread, label %20

20:                                               ; preds = %17
  %21 = call i32 @sp_copy(ptr noundef nonnull %18, ptr noundef nonnull %7) #14
  %.not24 = icmp eq i32 %21, 0
  br i1 %.not24, label %.thread, label %.thread42

.thread:                                          ; preds = %20, %15, %17
  %22 = call i32 @sp_cmp_d(ptr noundef nonnull %6, i64 noundef 0) #14
  %23 = icmp eq i32 %22, 0
  br i1 %23, label %.thread42, label %24

24:                                               ; preds = %.thread
  %25 = load i16, ptr %7, align 16, !tbaa !17
  %.not26 = icmp eq i16 %25, 0
  br i1 %.not26, label %.thread42, label %26

26:                                               ; preds = %24
  %27 = getelementptr inbounds nuw i8, ptr %0, i64 2080
  %28 = call i32 @sp_copy(ptr noundef nonnull %27, ptr noundef nonnull %7) #14
  %.not27 = icmp eq i32 %28, 0
  br i1 %.not27, label %29, label %.thread42

29:                                               ; preds = %26
  %30 = call i32 @sp_sub_d(ptr noundef nonnull %7, i64 noundef 1, ptr noundef nonnull %7) #14
  %.not28 = icmp eq i32 %30, 0
  br i1 %.not28, label %.thread47, label %.thread42

.thread47:                                        ; preds = %29
  %31 = call i32 @sp_cmp(ptr noundef nonnull %6, ptr noundef nonnull %7) #14
  %32 = icmp eq i32 %31, 1
  %spec.select34 = select i1 %32, i32 -263, i32 0
  br label %.thread42

.thread42:                                        ; preds = %26, %12, %29, %.thread, %20, %15, %.thread47, %24
  %.3 = phi i32 [ 0, %24 ], [ %spec.select34, %.thread47 ], [ -110, %20 ], [ -111, %15 ], [ -120, %.thread ], [ -114, %29 ], [ -111, %12 ], [ -110, %26 ]
  call void @sp_forcezero(ptr noundef nonnull %6) #14
  call void @sp_clear(ptr noundef nonnull %7) #14
  br label %33

33:                                               ; preds = %10, %5, %.thread42
  %.017 = phi i32 [ %.3, %.thread42 ], [ -173, %5 ], [ -110, %10 ]
  call void @llvm.lifetime.end.p0(i64 1040, ptr nonnull %7) #14
  call void @llvm.lifetime.end.p0(i64 1040, ptr nonnull %6) #14
  ret i32 %.017
}